target datalayout = "e-m:e-p270:32:32-p271:32:32-p272:64:64-i64:64-i128:128-f80:128-n8:16:32:64-S128"
target triple = "x86_64-pc-linux-gnu"

%struct.RBasic = type { i64, i64 }

; Function Attrs: inlinehint nounwind sspstrong willreturn memory(none) uwtable
define internal zeroext i1 @RB_IMMEDIATE_P(i64 noundef %0) #4 {
  %2 = alloca i64, align 8
  store i64 %0, ptr %2, align 8, !tbaa !7
  %3 = load i64, ptr %2, align 8, !tbaa !7
  %4 = and i64 %3, 7
  %5 = icmp ne i64 %4, 0
  ret i1 %5
}

; Function Attrs: inlinehint nounwind sspstrong willreturn memory(read) uwtable
define internal i32 @RB_BUILTIN_TYPE(i64 noundef %0) #5 {
  %2 = alloca i64, align 8
  %3 = alloca i64, align 8
  store i64 %0, ptr %2, align 8, !tbaa !7
  call void @llvm.lifetime.start.p0(i64 8, ptr %3) #25
  %4 = load i64, ptr %2, align 8, !tbaa !7
  %5 = inttoptr i64 %4 to ptr
  %6 = getelementptr inbounds nuw %struct.RBasic, ptr %5, i32 0, i32 0
  %7 = load i64, ptr %6, align 8, !tbaa !49
  %8 = and i64 %7, 31
  store i64 %8, ptr %3, align 8, !tbaa !7
  %9 = load i64, ptr %3, align 8, !tbaa !7
  %10 = trunc i64 %9 to i32
  call void @llvm.lifetime.end.p0(i64 8, ptr %3) #25
  ret i32 %10
}

; Function Attrs: inlinehint nounwind sspstrong willreturn memory(none) uwtable
define internal zeroext i1 @RB_SPECIAL_CONST_P(i64 noundef %0) #4 {
  %2 = alloca i64, align 8
  store i64 %0, ptr %2, align 8, !tbaa !7
  %3 = load i64, ptr %2, align 8, !tbaa !7
  %4 = icmp eq i64 %3, 0
  br i1 %4, label %8, label %5

5:                                                ; preds = %1
  %6 = load i64, ptr %2, align 8, !tbaa !7
  %7 = call zeroext i1 @RB_IMMEDIATE_P(i64 noundef %6) #26
  br label %8

8:                                                ; preds = %5, %1
  %9 = phi i1 [ true, %1 ], [ %7, %5 ]
  ret i1 %9
}

; Function Attrs: inlinehint nounwind sspstrong willreturn memory(none) uwtable
define internal zeroext i1 @RB_FLONUM_P(i64 noundef %0) #4 {
  %2 = alloca i64, align 8
  store i64 %0, ptr %2, align 8, !tbaa !7
  %3 = load i64, ptr %2, align 8, !tbaa !7
  %4 = and i64 %3, 3
  %5 = icmp eq i64 %4, 2
  ret i1 %5
}

; Function Attrs: inlinehint nounwind sspstrong willreturn memory(none) uwtable
define internal i64 @RB_INT2FIX(i64 noundef %0) #4 {
  %2 = alloca i64, align 8
  %3 = alloca i64, align 8
  %4 = alloca i64, align 8
  %5 = alloca i64, align 8
  %6 = alloca i64, align 8
  %7 = alloca i64, align 8
  store i64 %0, ptr %2, align 8, !tbaa !7
  call void @llvm.lifetime.start.p0(i64 8, ptr %3) #25
  %8 = load i64, ptr %2, align 8, !tbaa !7
  store i64 %8, ptr %3, align 8, !tbaa !7
  call void @llvm.lifetime.start.p0(i64 8, ptr %4) #25
  %9 = load i64, ptr %3, align 8, !tbaa !7
  %10 = shl i64 %9, 1
  %11 = add i64 %10, 1
  store i64 %11, ptr %4, align 8, !tbaa !7
  call void @llvm.lifetime.start.p0(i64 8, ptr %5) #25
  %12 = load i64, ptr %4, align 8, !tbaa !7
  store i64 %12, ptr %5, align 8, !tbaa !7
  call void @llvm.lifetime.start.p0(i64 8, ptr %6) #25
  %13 = load i64, ptr %5, align 8, !tbaa !7
  store i64 %13, ptr %6, align 8, !tbaa !7
  call void @llvm.lifetime.start.p0(i64 8, ptr %7) #25
  %14 = load i64, ptr %6, align 8, !tbaa !7
  store i64 %14, ptr %7, align 8, !tbaa !7
  %15 = load i64, ptr %7, align 8, !tbaa !7
  call void @llvm.lifetime.end.p0(i64 8, ptr %7) #25
  call void @llvm.lifetime.end.p0(i64 8, ptr %6) #25
  call void @llvm.lifetime.end.p0(i64 8, ptr %5) #25
  call void @llvm.lifetime.end.p0(i64 8, ptr %4) #25
  call void @llvm.lifetime.end.p0(i64 8, ptr %3) #25
  ret i64 %15
}

; Function Attrs: inlinehint nounwind sspstrong willreturn memory(read) uwtable
define internal zeroext i1 @RB_FLOAT_TYPE_P(i64 noundef %0) #5 {
  %2 = alloca i1, align 1
  %3 = alloca i64, align 8
  store i64 %0, ptr %3, align 8, !tbaa !7
  %4 = load i64, ptr %3, align 8, !tbaa !7
  %5 = call zeroext i1 @RB_FLONUM_P(i64 noundef %4) #26
  br i1 %5, label %6, label %7

6:                                                ; preds = %1
  store i1 true, ptr %2, align 1
  br label %15

7:                                                ; preds = %1
  %8 = load i64, ptr %3, align 8, !tbaa !7
  %9 = call zeroext i1 @RB_SPECIAL_CONST_P(i64 noundef %8) #26
  br i1 %9, label %10, label %11

10:                                               ; preds = %7
  store i1 false, ptr %2, align 1
  br label %15

11:                                               ; preds = %7
  %12 = load i64, ptr %3, align 8, !tbaa !7
  %13 = call i32 @RB_BUILTIN_TYPE(i64 noundef %12) #27
  %14 = icmp eq i32 %13, 4
  store i1 %14, ptr %2, align 1
  br label %15

15:                                               ; preds = %11, %10, %6
  %16 = load i1, ptr %2, align 1
  ret i1 %16
}

; Function Attrs: inlinehint nounwind sspstrong uwtable
define internal i64 @rb_long2num_inline(i64 noundef %0) #8 {
  %2 = alloca i64, align 8
  %3 = alloca i64, align 8
  store i64 %0, ptr %3, align 8, !tbaa !7
  %4 = load i64, ptr %3, align 8, !tbaa !7
  %5 = icmp slt i64 %4, 4611686018427387904
  br i1 %5, label %6, label %12

6:                                                ; preds = %1
  %7 = load i64, ptr %3, align 8, !tbaa !7
  %8 = icmp sge i64 %7, -4611686018427387904
  br i1 %8, label %9, label %12

9:                                                ; preds = %6
  %10 = load i64, ptr %3, align 8, !tbaa !7
  %11 = call i64 @RB_INT2FIX(i64 noundef %10) #26
  store i64 %11, ptr %2, align 8
  br label %15

12:                                               ; preds = %6, %1
  %13 = load i64, ptr %3, align 8, !tbaa !7
  %14 = call i64 @rb_int2big(i64 noundef %13)
  store i64 %14, ptr %2, align 8
  br label %15

15:                                               ; preds = %12, %9
  %16 = load i64, ptr %2, align 8
  ret i64 %16
}

; Function Attrs: nounwind sspstrong uwtable
define internal i64 @int_pow(i64 noundef %0, i64 noundef %1) #2 {
  %3 = alloca i64, align 8
  %4 = alloca i64, align 8
  %5 = alloca i64, align 8
  %6 = alloca i32, align 4
  %7 = alloca i64, align 8
  %8 = alloca i32, align 4
  %9 = alloca i64, align 8
  store i64 %0, ptr %4, align 8, !tbaa !7
  store i64 %1, ptr %5, align 8, !tbaa !7
  call void @llvm.lifetime.start.p0(i64 4, ptr %6) #25
  %10 = load i64, ptr %4, align 8, !tbaa !7
  %11 = icmp slt i64 %10, 0
  %12 = zext i1 %11 to i32
  store i32 %12, ptr %6, align 4, !tbaa !14
  call void @llvm.lifetime.start.p0(i64 8, ptr %7) #25
  store i64 1, ptr %7, align 8, !tbaa !7
  %13 = load i64, ptr %5, align 8, !tbaa !7
  %14 = icmp eq i64 %13, 0
  br i1 %14, label %15, label %16

15:                                               ; preds = %2
  store i64 3, ptr %3, align 8
  store i32 1, ptr %8, align 4
  br label %141

16:                                               ; preds = %2
  %17 = load i64, ptr %5, align 8, !tbaa !7
  %18 = icmp eq i64 %17, 1
  br i1 %18, label %19, label %22

19:                                               ; preds = %16
  %20 = load i64, ptr %4, align 8, !tbaa !7
  %21 = call i64 @rb_long2num_inline(i64 noundef %20)
  store i64 %21, ptr %3, align 8
  store i32 1, ptr %8, align 4
  br label %141

22:                                               ; preds = %16
  %23 = load i32, ptr %6, align 4, !tbaa !14
  %24 = icmp ne i32 %23, 0
  br i1 %24, label %25, label %28

25:                                               ; preds = %22
  %26 = load i64, ptr %4, align 8, !tbaa !7
  %27 = sub i64 0, %26
  store i64 %27, ptr %4, align 8, !tbaa !7
  br label %28

28:                                               ; preds = %25, %22
  %29 = load i64, ptr %5, align 8, !tbaa !7
  %30 = and i64 %29, 1
  %31 = icmp ne i64 %30, 0
  br i1 %31, label %32, label %34

32:                                               ; preds = %28
  %33 = load i64, ptr %4, align 8, !tbaa !7
  store i64 %33, ptr %7, align 8, !tbaa !7
  br label %35

34:                                               ; preds = %28
  store i32 0, ptr %6, align 4, !tbaa !14
  br label %35

35:                                               ; preds = %34, %32
  %36 = load i64, ptr %5, align 8, !tbaa !7
  %37 = and i64 %36, -2
  store i64 %37, ptr %5, align 8, !tbaa !7
  br label %38

38:                                               ; preds = %100, %35
  br label %39

39:                                               ; preds = %50, %38
  %40 = load i64, ptr %5, align 8, !tbaa !7
  %41 = urem i64 %40, 2
  %42 = icmp eq i64 %41, 0
  br i1 %42, label %43, label %56

43:                                               ; preds = %39
  %44 = load i64, ptr %4, align 8, !tbaa !7
  %45 = icmp slt i64 %44, 2147483648
  br i1 %45, label %46, label %49

46:                                               ; preds = %43
  %47 = load i64, ptr %4, align 8, !tbaa !7
  %48 = icmp sge i64 %47, -2147483648
  br i1 %48, label %50, label %49

49:                                               ; preds = %46, %43
  br label %113

50:                                               ; preds = %46
  %51 = load i64, ptr %4, align 8, !tbaa !7
  %52 = load i64, ptr %4, align 8, !tbaa !7
  %53 = mul i64 %51, %52
  store i64 %53, ptr %4, align 8, !tbaa !7
  %54 = load i64, ptr %5, align 8, !tbaa !7
  %55 = lshr i64 %54, 1
  store i64 %55, ptr %5, align 8, !tbaa !7
  br label %39, !llvm.loop !38

56:                                               ; preds = %39
  %57 = load i64, ptr %4, align 8, !tbaa !7
  %58 = icmp eq i64 %57, 0
  br i1 %58, label %59, label %60

59:                                               ; preds = %56
  br i1 false, label %95, label %96

60:                                               ; preds = %56
  %61 = load i64, ptr %4, align 8, !tbaa !7
  %62 = icmp eq i64 %61, -1
  br i1 %62, label %63, label %66

63:                                               ; preds = %60
  %64 = load i64, ptr %7, align 8, !tbaa !7
  %65 = icmp slt i64 %64, -4611686018427387903
  br i1 %65, label %95, label %96

66:                                               ; preds = %60
  %67 = load i64, ptr %4, align 8, !tbaa !7
  %68 = icmp sgt i64 %67, 0
  br i1 %68, label %69, label %82

69:                                               ; preds = %66
  %70 = load i64, ptr %7, align 8, !tbaa !7
  %71 = icmp sgt i64 %70, 0
  br i1 %71, label %72, label %77

72:                                               ; preds = %69
  %73 = load i64, ptr %4, align 8, !tbaa !7
  %74 = sdiv i64 4611686018427387903, %73
  %75 = load i64, ptr %7, align 8, !tbaa !7
  %76 = icmp slt i64 %74, %75
  br i1 %76, label %95, label %96

77:                                               ; preds = %69
  %78 = load i64, ptr %4, align 8, !tbaa !7
  %79 = sdiv i64 -4611686018427387904, %78
  %80 = load i64, ptr %7, align 8, !tbaa !7
  %81 = icmp sgt i64 %79, %80
  br i1 %81, label %95, label %96

82:                                               ; preds = %66
  %83 = load i64, ptr %7, align 8, !tbaa !7
  %84 = icmp sgt i64 %83, 0
  br i1 %84, label %85, label %90

85:                                               ; preds = %82
  %86 = load i64, ptr %4, align 8, !tbaa !7
  %87 = sdiv i64 -4611686018427387904, %86
  %88 = load i64, ptr %7, align 8, !tbaa !7
  %89 = icmp slt i64 %87, %88
  br i1 %89, label %95, label %96

90:                                               ; preds = %82
  %91 = load i64, ptr %4, align 8, !tbaa !7
  %92 = sdiv i64 4611686018427387903, %91
  %93 = load i64, ptr %7, align 8, !tbaa !7
  %94 = icmp sgt i64 %92, %93
  br i1 %94, label %95, label %96

95:                                               ; preds = %90, %85, %77, %72, %63, %59
  br label %113

96:                                               ; preds = %90, %85, %77, %72, %63, %59
  %97 = load i64, ptr %4, align 8, !tbaa !7
  %98 = load i64, ptr %7, align 8, !tbaa !7
  %99 = mul i64 %97, %98
  store i64 %99, ptr %7, align 8, !tbaa !7
  br label %100

100:                                              ; preds = %96
  %101 = load i64, ptr %5, align 8, !tbaa !7
  %102 = add i64 %101, -1
  store i64 %102, ptr %5, align 8, !tbaa !7
  %103 = icmp ne i64 %102, 0
  br i1 %103, label %38, label %104, !llvm.loop !40

104:                                              ; preds = %100
  %105 = load i32, ptr %6, align 4, !tbaa !14
  %106 = icmp ne i32 %105, 0
  br i1 %106, label %107, label %110

107:                                              ; preds = %104
  %108 = load i64, ptr %7, align 8, !tbaa !7
  %109 = sub i64 0, %108
  store i64 %109, ptr %7, align 8, !tbaa !7
  br label %110

110:                                              ; preds = %107, %104
  %111 = load i64, ptr %7, align 8, !tbaa !7
  %112 = call i64 @rb_long2num_inline(i64 noundef %111)
  store i64 %112, ptr %3, align 8
  store i32 1, ptr %8, align 4
  br label %141

113:                                              ; preds = %95, %49
  %114 = load i64, ptr %4, align 8, !tbaa !7
  %115 = call i64 @rb_int2big(i64 noundef %114)
  %116 = load i64, ptr %5, align 8, !tbaa !7
  %117 = call i64 @rb_long2num_inline(i64 noundef %116)
  %118 = call i64 @rb_big_pow(i64 noundef %115, i64 noundef %117)
  store i64 %118, ptr %9, align 8, !tbaa !7
  %119 = load i64, ptr %9, align 8, !tbaa !7
  %120 = call zeroext i1 @RB_FLOAT_TYPE_P(i64 noundef %119) #27
  br i1 %120, label %121, label %123

121:                                              ; preds = %113
  %122 = load i64, ptr %9, align 8, !tbaa !7
  store i64 %122, ptr %3, align 8
  store i32 1, ptr %8, align 4
  br label %141

123:                                              ; preds = %113
  %124 = load i64, ptr %7, align 8, !tbaa !7
  %125 = icmp ne i64 %124, 1
  br i1 %125, label %126, label %139

126:                                              ; preds = %123
  %127 = load i32, ptr %6, align 4, !tbaa !14
  %128 = icmp ne i32 %127, 0
  br i1 %128, label %129, label %132

129:                                              ; preds = %126
  %130 = load i64, ptr %7, align 8, !tbaa !7
  %131 = sub i64 0, %130
  br label %134

132:                                              ; preds = %126
  %133 = load i64, ptr %7, align 8, !tbaa !7
  br label %134

134:                                              ; preds = %132, %129
  %135 = phi i64 [ %131, %129 ], [ %133, %132 ]
  %136 = call i64 @rb_int2big(i64 noundef %135)
  %137 = load i64, ptr %9, align 8, !tbaa !7
  %138 = call i64 @rb_big_mul(i64 noundef %136, i64 noundef %137)
  store i64 %138, ptr %9, align 8, !tbaa !7
  br label %139

139:                                              ; preds = %134, %123
  %140 = load i64, ptr %9, align 8, !tbaa !7
  store i64 %140, ptr %3, align 8
  store i32 1, ptr %8, align 4
  br label %141

141:                                              ; preds = %139, %121, %110, %19, %15
  call void @llvm.lifetime.end.p0(i64 8, ptr %7) #25
  call void @llvm.lifetime.end.p0(i64 4, ptr %6) #25
  %142 = load i64, ptr %3, align 8
  ret i64 %142
}