; Function Attrs: nounwind sspstrong uwtable
define internal fastcc i64 @int_pow(i64 noundef %0, i64 noundef %1) unnamed_addr #2 {
  switch i64 %1, label %10 [
    i64 0, label %rb_long2num_inline.exit
    i64 1, label %3
  ]

3:                                                ; preds = %2
  %4 = add i64 %0, 4611686018427387904
  %or.cond.i = icmp sgt i64 %4, -1
  br i1 %or.cond.i, label %5, label %8

5:                                                ; preds = %3
  %6 = shl nsw i64 %0, 1
  %7 = or disjoint i64 %6, 1
  br label %rb_long2num_inline.exit

8:                                                ; preds = %3
  %9 = tail call i64 @rb_int2big(i64 noundef %0) #26
  br label %rb_long2num_inline.exit

10:                                               ; preds = %2
  %spec.select = tail call i64 @llvm.abs.i64(i64 %0, i1 false)
  %11 = and i64 %1, 1
  %.not = icmp eq i64 %11, 0
  %12 = icmp sgt i64 %0, -1
  %.048 = or i1 %12, %.not
  %.047 = select i1 %.not, i64 1, i64 %spec.select
  %13 = and i64 %1, -2
  br label %14

14:                                               ; preds = %42, %10
  %.152 = phi i64 [ %spec.select, %10 ], [ %.253.lcssa, %42 ]
  %.049 = phi i64 [ %13, %10 ], [ %44, %42 ]
  %.1 = phi i64 [ %.047, %10 ], [ %43, %42 ]
  %15 = and i64 %.049, 1
  %16 = icmp eq i64 %15, 0
  br i1 %16, label %.lr.ph, label %._crit_edge

.lr.ph:                                           ; preds = %14, %18
  %.15089 = phi i64 [ %20, %18 ], [ %.049, %14 ]
  %.25388 = phi i64 [ %19, %18 ], [ %.152, %14 ]
  %17 = add i64 %.25388, 2147483648
  %or.cond = icmp ult i64 %17, 4294967296
  br i1 %or.cond, label %18, label %.loopexit

18:                                               ; preds = %.lr.ph
  %19 = mul nsw i64 %.25388, %.25388
  %20 = lshr exact i64 %.15089, 1
  %21 = and i64 %.15089, 2
  %22 = icmp eq i64 %21, 0
  br i1 %22, label %.lr.ph, label %._crit_edge, !llvm.loop !31

._crit_edge:                                      ; preds = %18, %14
  %.253.lcssa = phi i64 [ %.152, %14 ], [ %19, %18 ]
  %.150.lcssa = phi i64 [ %.049, %14 ], [ %20, %18 ]
  switch i64 %.253.lcssa, label %25 [
    i64 0, label %42
    i64 -1, label %23
  ]

23:                                               ; preds = %._crit_edge
  %24 = icmp slt i64 %.1, -4611686018427387903
  br i1 %24, label %.loopexit, label %42

25:                                               ; preds = %._crit_edge
  %26 = icmp sgt i64 %.253.lcssa, 0
  %27 = icmp sgt i64 %.1, 0
  br i1 %26, label %28, label %35

28:                                               ; preds = %25
  br i1 %27, label %29, label %32

29:                                               ; preds = %28
  %30 = udiv i64 4611686018427387903, %.253.lcssa
  %31 = icmp samesign ult i64 %30, %.1
  br i1 %31, label %.loopexit, label %42

32:                                               ; preds = %28
  %33 = udiv i64 4611686018427387904, %.253.lcssa
  %.neg = sub nsw i64 0, %33
  %34 = icmp slt i64 %.1, %.neg
  br i1 %34, label %.loopexit, label %42

35:                                               ; preds = %25
  %.253.nonneg = sub i64 0, %.253.lcssa
  br i1 %27, label %36, label %39

36:                                               ; preds = %35
  %37 = udiv i64 4611686018427387904, %.253.nonneg
  %38 = icmp samesign ult i64 %37, %.1
  br i1 %38, label %.loopexit, label %42

39:                                               ; preds = %35
  %40 = udiv i64 4611686018427387903, %.253.nonneg
  %.neg77 = sub nsw i64 0, %40
  %41 = icmp slt i64 %.1, %.neg77
  br i1 %41, label %.loopexit, label %42

42:                                               ; preds = %._crit_edge, %39, %36, %32, %29, %23
  %43 = mul i64 %.253.lcssa, %.1
  %44 = add nsw i64 %.150.lcssa, -1
  %.not59 = icmp eq i64 %44, 0
  br i1 %.not59, label %45, label %14, !llvm.loop !32

45:                                               ; preds = %42
  %46 = sub i64 0, %43
  %spec.select63 = select i1 %.048, i64 %43, i64 %46
  %47 = add i64 %spec.select63, 4611686018427387904
  %or.cond.i65 = icmp sgt i64 %47, -1
  br i1 %or.cond.i65, label %48, label %51

48:                                               ; preds = %45
  %49 = shl nsw i64 %spec.select63, 1
  %50 = or disjoint i64 %49, 1
  br label %rb_long2num_inline.exit

51:                                               ; preds = %45
  %52 = tail call i64 @rb_int2big(i64 noundef %spec.select63) #26
  br label %rb_long2num_inline.exit

.loopexit:                                        ; preds = %23, %29, %32, %36, %39, %.lr.ph
  %.25383 = phi i64 [ %.25388, %.lr.ph ], [ -1, %23 ], [ %.253.lcssa, %29 ], [ %.253.lcssa, %32 ], [ %.253.lcssa, %36 ], [ %.253.lcssa, %39 ]
  %.15080 = phi i64 [ %.15089, %.lr.ph ], [ %.150.lcssa, %39 ], [ %.150.lcssa, %36 ], [ %.150.lcssa, %32 ], [ %.150.lcssa, %29 ], [ %.150.lcssa, %23 ]
  %53 = tail call i64 @rb_int2big(i64 noundef %.25383) #26
  %54 = add i64 %.15080, 4611686018427387904
  %or.cond.i68 = icmp sgt i64 %54, -1
  br i1 %or.cond.i68, label %55, label %58

55:                                               ; preds = %.loopexit
  %56 = shl nsw i64 %.15080, 1
  %57 = or disjoint i64 %56, 1
  br label %rb_long2num_inline.exit70

58:                                               ; preds = %.loopexit
  %59 = tail call i64 @rb_int2big(i64 noundef %.15080) #26
  br label %rb_long2num_inline.exit70

rb_long2num_inline.exit70:                        ; preds = %55, %58
  %.0.i69 = phi i64 [ %57, %55 ], [ %59, %58 ]
  %60 = tail call i64 @rb_big_pow(i64 noundef %53, i64 noundef %.0.i69) #26
  %61 = and i64 %60, 3
  %62 = icmp eq i64 %61, 2
  br i1 %62, label %rb_long2num_inline.exit, label %63

63:                                               ; preds = %rb_long2num_inline.exit70
  %64 = icmp eq i64 %60, 0
  %65 = and i64 %60, 7
  %66 = icmp ne i64 %65, 0
  %67 = or i1 %64, %66
  br i1 %67, label %RB_FLOAT_TYPE_P.exit, label %68

68:                                               ; preds = %63
  %69 = inttoptr i64 %60 to ptr
  %70 = load i64, ptr %69, align 8, !tbaa !11
  %71 = and i64 %70, 31
  %72 = icmp eq i64 %71, 4
  br label %RB_FLOAT_TYPE_P.exit

RB_FLOAT_TYPE_P.exit:                             ; preds = %63, %68
  %.0.i71 = phi i1 [ %72, %68 ], [ false, %63 ]
  %.not61 = icmp eq i64 %.1, 1
  %or.cond64 = select i1 %.0.i71, i1 true, i1 %.not61
  br i1 %or.cond64, label %rb_long2num_inline.exit, label %73

73:                                               ; preds = %RB_FLOAT_TYPE_P.exit
  %74 = sub i64 0, %.1
  %75 = select i1 %.048, i64 %.1, i64 %74
  %76 = tail call i64 @rb_int2big(i64 noundef %75) #26
  %77 = tail call i64 @rb_big_mul(i64 noundef %76, i64 noundef %60) #26
  br label %rb_long2num_inline.exit

rb_long2num_inline.exit:                          ; preds = %rb_long2num_inline.exit70, %51, %48, %8, %5, %73, %RB_FLOAT_TYPE_P.exit, %2
  %.054 = phi i64 [ 3, %2 ], [ %60, %RB_FLOAT_TYPE_P.exit ], [ %77, %73 ], [ %7, %5 ], [ %9, %8 ], [ %50, %48 ], [ %52, %51 ], [ %60, %rb_long2num_inline.exit70 ]
  ret i64 %.054
}